target datalayout = "e-m:e-p270:32:32-p271:32:32-p272:64:64-i64:64-i128:128-f80:128-n8:16:32:64-S128"
target triple = "x86_64-pc-linux-gnu"

%class.XMMRegister = type { i32 }
%struct.ABIDescriptor = type { %class.GrowableArray, %class.GrowableArray, %class.GrowableArray.0, %class.GrowableArray.0, i64, %class.GrowableArray, %class.GrowableArray.0, i32, i32, %class.VMStorage, %class.VMStorage }
%class.GrowableArray = type { %class.GrowableArrayWithAllocator, %class.GrowableArrayMetadata }
%class.GrowableArrayWithAllocator = type { %class.GrowableArrayView }
%class.GrowableArrayView = type { %class.GrowableArrayBase, ptr }
%class.GrowableArrayBase = type { i32, i32 }
%class.GrowableArrayMetadata = type { i64 }
%class.GrowableArray.0 = type { %class.GrowableArrayWithAllocator.1, %class.GrowableArrayMetadata }
%class.GrowableArrayWithAllocator.1 = type { %class.GrowableArrayView.2 }
%class.GrowableArrayView.2 = type { %class.GrowableArrayBase, ptr }
%class.VMStorage = type { i8, i16, i32 }

; Function Attrs: mustprogress nounwind uwtable
define linkonce_odr hidden noundef i32 @_ZNK11XMMRegistereqES_(ptr noundef nonnull align 4 dereferenceable(4) %0, i32 %1) #1 comdat align 2 {
  %3 = alloca %class.XMMRegister, align 4
  %4 = alloca ptr, align 8
  %5 = getelementptr inbounds %class.XMMRegister, ptr %3, i32 0, i32 0
  store i32 %1, ptr %5, align 4
  store ptr %0, ptr %4, align 8
  %6 = load ptr, ptr %4, align 8
  %7 = getelementptr inbounds %class.XMMRegister, ptr %6, i32 0, i32 0
  %8 = load i32, ptr %7, align 4
  %9 = getelementptr inbounds %class.XMMRegister, ptr %3, i32 0, i32 0
  %10 = load i32, ptr %9, align 4
  %11 = icmp eq i32 %8, %10
  %12 = zext i1 %11 to i32
  ret i32 %12
}

; Function Attrs: mustprogress nounwind uwtable
define linkonce_odr hidden noundef zeroext i1 @_ZNK17GrowableArrayViewI11XMMRegisterE8containsERKS0_(ptr noundef nonnull align 8 dereferenceable(16) %0, ptr noundef nonnull align 4 dereferenceable(4) %1) #1 comdat align 2 {
  %3 = alloca i1, align 1
  %4 = alloca ptr, align 8
  %5 = alloca ptr, align 8
  %6 = alloca i32, align 4
  %7 = alloca %class.XMMRegister, align 4
  store ptr %0, ptr %4, align 8
  store ptr %1, ptr %5, align 8
  %8 = load ptr, ptr %4, align 8
  store i32 0, ptr %6, align 4
  br label %9

9:                                                ; preds = %27, %2
  %10 = load i32, ptr %6, align 4
  %11 = getelementptr inbounds %class.GrowableArrayBase, ptr %8, i32 0, i32 0
  %12 = load i32, ptr %11, align 8
  %13 = icmp slt i32 %10, %12
  br i1 %13, label %14, label %30

14:                                               ; preds = %9
  %15 = getelementptr inbounds %class.GrowableArrayView.2, ptr %8, i32 0, i32 1
  %16 = load ptr, ptr %15, align 8
  %17 = load i32, ptr %6, align 4
  %18 = sext i32 %17 to i64
  %19 = getelementptr inbounds %class.XMMRegister, ptr %16, i64 %18
  %20 = load ptr, ptr %5, align 8
  call void @llvm.memcpy.p0.p0.i64(ptr align 4 %7, ptr align 4 %20, i64 4, i1 false)
  %21 = getelementptr inbounds %class.XMMRegister, ptr %7, i32 0, i32 0
  %22 = load i32, ptr %21, align 4
  %23 = call noundef i32 @_ZNK11XMMRegistereqES_(ptr noundef nonnull align 4 dereferenceable(4) %19, i32 %22)
  %24 = icmp ne i32 %23, 0
  br i1 %24, label %25, label %26

25:                                               ; preds = %14
  store i1 true, ptr %3, align 1
  br label %31

26:                                               ; preds = %14
  br label %27

27:                                               ; preds = %26
  %28 = load i32, ptr %6, align 4
  %29 = add nsw i32 %28, 1
  store i32 %29, ptr %6, align 4
  br label %9, !llvm.loop !8

30:                                               ; preds = %9
  store i1 false, ptr %3, align 1
  br label %31

31:                                               ; preds = %30, %25
  %32 = load i1, ptr %3, align 1
  ret i1 %32
}

; Function Attrs: mustprogress nounwind uwtable
define hidden noundef zeroext i1 @_ZNK13ABIDescriptor15is_volatile_regE11XMMRegister(ptr noundef nonnull align 8 dereferenceable(176) %0, i32 %1) #1 align 2 {
  %3 = alloca %class.XMMRegister, align 4
  %4 = alloca ptr, align 8
  %5 = getelementptr inbounds %class.XMMRegister, ptr %3, i32 0, i32 0
  store i32 %1, ptr %5, align 4
  store ptr %0, ptr %4, align 8
  %6 = load ptr, ptr %4, align 8
  %7 = getelementptr inbounds %struct.ABIDescriptor, ptr %6, i32 0, i32 2
  %8 = call noundef zeroext i1 @_ZNK17GrowableArrayViewI11XMMRegisterE8containsERKS0_(ptr noundef nonnull align 8 dereferenceable(16) %7, ptr noundef nonnull align 4 dereferenceable(4) %3)
  br i1 %8, label %12, label %9

9:                                                ; preds = %2
  %10 = getelementptr inbounds %struct.ABIDescriptor, ptr %6, i32 0, i32 6
  %11 = call noundef zeroext i1 @_ZNK17GrowableArrayViewI11XMMRegisterE8containsERKS0_(ptr noundef nonnull align 8 dereferenceable(16) %10, ptr noundef nonnull align 4 dereferenceable(4) %3)
  br label %12

12:                                               ; preds = %9, %2
  %13 = phi i1 [ true, %2 ], [ %11, %9 ]
  ret i1 %13
}