; Function Attrs: mustprogress nofree norecurse nosync nounwind willreturn memory(read, inaccessiblemem: none) uwtable
define hidden noundef zeroext i1 @_ZNK13ABIDescriptor15is_volatile_regE11XMMRegister(ptr nocapture noundef nonnull readonly align 8 dereferenceable(176) %0, i32 %1) local_unnamed_addr #1 align 2 {
  %3 = getelementptr inbounds i8, ptr %0, i64 48
  %4 = load i32, ptr %3, align 8
  %5 = icmp sgt i32 %4, 0
  br i1 %5, label %.lr.ph.i, label %_ZNK17GrowableArrayViewI11XMMRegisterE8containsERKS0_.exit.thread

.lr.ph.i:                                         ; preds = %2
  %6 = getelementptr inbounds i8, ptr %0, i64 56
  %7 = load ptr, ptr %6, align 8
  %8 = zext nneg i32 %4 to i64
  %9 = load i32, ptr %7, align 4
  %.not.i12 = icmp eq i32 %9, %1
  br i1 %.not.i12, label %_ZNK17GrowableArrayViewI11XMMRegisterE8containsERKS0_.exit9, label %.lr.ph

.lr.ph:                                           ; preds = %.lr.ph.i, %10
  %indvars.iv.i13 = phi i64 [ %indvars.iv.next.i, %10 ], [ 0, %.lr.ph.i ]
  %indvars.iv.next.i = add nuw nsw i64 %indvars.iv.i13, 1
  %exitcond.not.i = icmp eq i64 %indvars.iv.next.i, %8
  br i1 %exitcond.not.i, label %_ZNK17GrowableArrayViewI11XMMRegisterE8containsERKS0_.exit, label %10, !llvm.loop !8

10:                                               ; preds = %.lr.ph
  %11 = getelementptr inbounds %class.XMMRegister, ptr %7, i64 %indvars.iv.next.i
  %12 = load i32, ptr %11, align 4
  %.not.i = icmp eq i32 %12, %1
  br i1 %.not.i, label %_ZNK17GrowableArrayViewI11XMMRegisterE8containsERKS0_.exit, label %.lr.ph, !llvm.loop !8

_ZNK17GrowableArrayViewI11XMMRegisterE8containsERKS0_.exit: ; preds = %10, %.lr.ph
  %13 = icmp ult i64 %indvars.iv.next.i, %8
  br i1 %13, label %_ZNK17GrowableArrayViewI11XMMRegisterE8containsERKS0_.exit9, label %_ZNK17GrowableArrayViewI11XMMRegisterE8containsERKS0_.exit.thread

_ZNK17GrowableArrayViewI11XMMRegisterE8containsERKS0_.exit.thread: ; preds = %2, %_ZNK17GrowableArrayViewI11XMMRegisterE8containsERKS0_.exit
  %14 = getelementptr inbounds i8, ptr %0, i64 128
  %15 = load i32, ptr %14, align 8
  %16 = icmp sgt i32 %15, 0
  br i1 %16, label %.lr.ph.i2, label %_ZNK17GrowableArrayViewI11XMMRegisterE8containsERKS0_.exit9

.lr.ph.i2:                                        ; preds = %_ZNK17GrowableArrayViewI11XMMRegisterE8containsERKS0_.exit.thread
  %17 = getelementptr inbounds i8, ptr %0, i64 136
  %18 = load ptr, ptr %17, align 8
  %19 = zext nneg i32 %15 to i64
  %20 = load i32, ptr %18, align 4
  %.not.i616 = icmp eq i32 %20, %1
  br i1 %.not.i616, label %_ZNK17GrowableArrayViewI11XMMRegisterE8containsERKS0_.exit9, label %.lr.ph18

.lr.ph18:                                         ; preds = %.lr.ph.i2, %21
  %indvars.iv.i517 = phi i64 [ %indvars.iv.next.i7, %21 ], [ 0, %.lr.ph.i2 ]
  %indvars.iv.next.i7 = add nuw nsw i64 %indvars.iv.i517, 1
  %exitcond.not.i8 = icmp eq i64 %indvars.iv.next.i7, %19
  br i1 %exitcond.not.i8, label %_ZNK17GrowableArrayViewI11XMMRegisterE8containsERKS0_.exit9.loopexit, label %21, !llvm.loop !8

21:                                               ; preds = %.lr.ph18
  %22 = getelementptr inbounds %class.XMMRegister, ptr %18, i64 %indvars.iv.next.i7
  %23 = load i32, ptr %22, align 4
  %.not.i6 = icmp eq i32 %23, %1
  br i1 %.not.i6, label %_ZNK17GrowableArrayViewI11XMMRegisterE8containsERKS0_.exit9.loopexit, label %.lr.ph18, !llvm.loop !8

_ZNK17GrowableArrayViewI11XMMRegisterE8containsERKS0_.exit9.loopexit: ; preds = %21, %.lr.ph18
  %24 = icmp ult i64 %indvars.iv.next.i7, %19
  br label %_ZNK17GrowableArrayViewI11XMMRegisterE8containsERKS0_.exit9

_ZNK17GrowableArrayViewI11XMMRegisterE8containsERKS0_.exit9: ; preds = %_ZNK17GrowableArrayViewI11XMMRegisterE8containsERKS0_.exit9.loopexit, %.lr.ph.i, %.lr.ph.i2, %_ZNK17GrowableArrayViewI11XMMRegisterE8containsERKS0_.exit.thread, %_ZNK17GrowableArrayViewI11XMMRegisterE8containsERKS0_.exit
  %25 = phi i1 [ true, %_ZNK17GrowableArrayViewI11XMMRegisterE8containsERKS0_.exit ], [ false, %_ZNK17GrowableArrayViewI11XMMRegisterE8containsERKS0_.exit.thread ], [ true, %.lr.ph.i2 ], [ true, %.lr.ph.i ], [ %24, %_ZNK17GrowableArrayViewI11XMMRegisterE8containsERKS0_.exit9.loopexit ]
  ret i1 %25
}